; Function Attrs: nounwind uwtable
define internal fastcc void @appendnode(ptr noundef %0, ptr noundef %1, ptr noundef %2) unnamed_addr #0 {
  %4 = alloca %struct.agxbuf, align 8
  %.not = icmp eq ptr %2, null
  br i1 %.not, label %36, label %5

5:                                                ; preds = %3
  call void @llvm.lifetime.start.p0(i64 32, ptr nonnull %4) #19
  call void @llvm.memset.p0.i64(ptr noundef nonnull align 8 dereferenceable(32) %4, i8 0, i64 32, i1 false)
  call void (ptr, ptr, ...) @agxbprint(ptr noundef %4, ptr nonnull poison, ptr noundef %1, ptr noundef nonnull %2)
  %6 = load ptr, ptr @G, align 8, !tbaa !19
  %7 = getelementptr inbounds nuw i8, ptr %4, i64 31
  %.val.i.i = load i8, ptr %7, align 1, !tbaa !7
  switch i8 %.val.i.i, label %agxblen.exit.i.i.i [
    i8 -1, label %9
    i8 31, label %agxbclear.exit.thread.i.i
  ]

agxblen.exit.i.i.i:                               ; preds = %5
  %8 = zext i8 %.val.i.i to i64
  br label %agxbsizeof.exit.i.i.i

9:                                                ; preds = %5
  %10 = getelementptr inbounds nuw i8, ptr %4, i64 8
  %11 = load i64, ptr %10, align 8, !tbaa !7
  %12 = getelementptr inbounds nuw i8, ptr %4, i64 16
  %13 = load i64, ptr %12, align 8, !tbaa !7
  br label %agxbsizeof.exit.i.i.i

agxbsizeof.exit.i.i.i:                            ; preds = %9, %agxblen.exit.i.i.i
  %.0.i20.i.i.i = phi i64 [ %11, %9 ], [ %8, %agxblen.exit.i.i.i ]
  %.0.i14.i.i.i = phi i64 [ %13, %9 ], [ 31, %agxblen.exit.i.i.i ]
  %.not.i5.i.i = icmp ult i64 %.0.i20.i.i.i, %.0.i14.i.i.i
  br i1 %.not.i5.i.i, label %15, label %14

14:                                               ; preds = %agxbsizeof.exit.i.i.i
  call fastcc void @agxbmore(ptr noundef nonnull %4, i64 noundef 1)
  %.val.i15.pre.i.i.i = load i8, ptr %7, align 1, !tbaa !7
  br label %15

15:                                               ; preds = %14, %agxbsizeof.exit.i.i.i
  %.val.i6.pr.i.i = phi i8 [ %.val.i15.pre.i.i.i, %14 ], [ %.val.i.i, %agxbsizeof.exit.i.i.i ]
  %.not.i16.i.i.i = icmp eq i8 %.val.i6.pr.i.i, -1
  br i1 %.not.i16.i.i.i, label %agxbputc.exit.i.thread.i, label %agxbputc.exit.i.i

agxbputc.exit.i.thread.i:                         ; preds = %15
  %16 = getelementptr inbounds nuw i8, ptr %4, i64 8
  %17 = load i64, ptr %16, align 8, !tbaa !7
  %18 = load ptr, ptr %4, align 8, !tbaa !7
  %19 = getelementptr inbounds nuw i8, ptr %18, i64 %17
  store i8 0, ptr %19, align 1, !tbaa !7
  br label %25

agxbputc.exit.i.i:                                ; preds = %15
  %20 = zext i8 %.val.i6.pr.i.i to i64
  %21 = getelementptr inbounds nuw [31 x i8], ptr %4, i64 0, i64 %20
  store i8 0, ptr %21, align 1, !tbaa !7
  %22 = load i8, ptr %7, align 1, !tbaa !7
  %23 = add i8 %22, 1
  store i8 %23, ptr %7, align 1, !tbaa !7
  %24 = icmp eq i8 %23, -1
  br i1 %24, label %agxbputc.exit.i.i._crit_edge, label %agxbclear.exit.thread.i.i

agxbputc.exit.i.i._crit_edge:                     ; preds = %agxbputc.exit.i.i
  %.pre = load ptr, ptr %4, align 8, !tbaa !7
  br label %25

agxbclear.exit.thread.i.i:                        ; preds = %agxbputc.exit.i.i, %5
  store i8 0, ptr %7, align 1, !tbaa !7
  br label %agxbuse.exit.i

25:                                               ; preds = %agxbputc.exit.i.i._crit_edge, %agxbputc.exit.i.thread.i
  %26 = phi ptr [ %.pre, %agxbputc.exit.i.i._crit_edge ], [ %18, %agxbputc.exit.i.thread.i ]
  %27 = getelementptr inbounds nuw i8, ptr %4, i64 8
  store i64 0, ptr %27, align 8, !tbaa !7
  br label %agxbuse.exit.i

agxbuse.exit.i:                                   ; preds = %25, %agxbclear.exit.thread.i.i
  %28 = phi ptr [ %26, %25 ], [ %4, %agxbclear.exit.thread.i.i ]
  %29 = call ptr @agstrdup(ptr noundef %6, ptr noundef %28) #19
  %30 = load ptr, ptr @G, align 8, !tbaa !19
  %31 = call i32 @agstrfree(ptr noundef %30, ptr noundef %1, i1 noundef zeroext false) #19
  %32 = load ptr, ptr @G, align 8, !tbaa !19
  %33 = call i32 @agstrfree(ptr noundef %32, ptr noundef nonnull %2, i1 noundef zeroext false) #19
  %.val5.i = load i8, ptr %7, align 1, !tbaa !7
  %34 = icmp eq i8 %.val5.i, -1
  br i1 %34, label %35, label %concatPort.exit

35:                                               ; preds = %agxbuse.exit.i
  %.val.i = load ptr, ptr %4, align 8
  call void @free(ptr noundef %.val.i) #19
  br label %concatPort.exit

concatPort.exit:                                  ; preds = %agxbuse.exit.i, %35
  call void @llvm.lifetime.end.p0(i64 32, ptr nonnull %4) #19
  br label %36

36:                                               ; preds = %concatPort.exit, %3
  %.0 = phi ptr [ %29, %concatPort.exit ], [ %1, %3 ]
  %37 = load ptr, ptr @S, align 8, !tbaa !8
  %38 = load ptr, ptr %37, align 8, !tbaa !24
  %39 = call ptr @agnode(ptr noundef %38, ptr noundef %0, i32 noundef 1) #19
  %40 = call noalias dereferenceable_or_null(32) ptr @calloc(i64 noundef 1, i64 noundef range(i64 8193, 73) 32) #21
  %41 = icmp eq ptr %40, null
  br i1 %41, label %42, label %cons_node.exit

42:                                               ; preds = %36
  %43 = load ptr, ptr @stderr, align 8, !tbaa !22
  %44 = call i32 (ptr, ptr, ...) @fprintf(ptr noundef %43, ptr noundef nonnull @.str.8, i64 noundef 32) #22
  call fastcc void @graphviz_exit() #23
  unreachable

cons_node.exit:                                   ; preds = %36
  store i32 259, ptr %40, align 8, !tbaa !26
  %45 = getelementptr inbounds nuw i8, ptr %40, i64 8
  store ptr %39, ptr %45, align 8, !tbaa !7
  %46 = getelementptr inbounds nuw i8, ptr %40, i64 16
  store ptr %.0, ptr %46, align 8, !tbaa !29
  %47 = load ptr, ptr @S, align 8, !tbaa !8
  %48 = getelementptr inbounds nuw i8, ptr %47, i64 16
  %49 = getelementptr inbounds nuw i8, ptr %47, i64 24
  %50 = load ptr, ptr %49, align 8, !tbaa !39
  %.not.i = icmp eq ptr %50, null
  br i1 %.not.i, label %53, label %51

51:                                               ; preds = %cons_node.exit
  %52 = getelementptr inbounds nuw i8, ptr %50, i64 24
  store ptr %40, ptr %52, align 8, !tbaa !31
  br label %53

53:                                               ; preds = %51, %cons_node.exit
  store ptr %40, ptr %49, align 8, !tbaa !39
  %54 = load ptr, ptr %48, align 8, !tbaa !11
  %55 = icmp eq ptr %54, null
  br i1 %55, label %56, label %listapp.exit

56:                                               ; preds = %53
  store ptr %40, ptr %48, align 8, !tbaa !11
  br label %listapp.exit

listapp.exit:                                     ; preds = %53, %56
  %57 = load ptr, ptr @G, align 8, !tbaa !19
  %58 = call i32 @agstrfree(ptr noundef %57, ptr noundef %0, i1 noundef zeroext false) #19
  ret void
}